target datalayout = "e-m:e-p270:32:32-p271:32:32-p272:64:64-i64:64-i128:128-f80:128-n8:16:32:64-S128"
target triple = "x86_64-pc-linux-gnu"

%struct.decay_s = type { %struct.malloc_mutex_s, i8, %struct.atomic_zd_t, %struct.nstime_t, %struct.nstime_t, i64, %struct.nstime_t, i64, i64, [200 x i64], i64 }
%struct.malloc_mutex_s = type { %union.anon }
%union.anon = type { %struct.anon }
%struct.anon = type { %struct.mutex_prof_data_t, %struct.atomic_b_t, %union.pthread_mutex_t }
%struct.mutex_prof_data_t = type { %struct.nstime_t, %struct.nstime_t, i64, i64, i32, %struct.atomic_u32_t, i64, ptr, i64 }
%struct.atomic_u32_t = type { i32 }
%struct.atomic_b_t = type { i8 }
%union.pthread_mutex_t = type { %struct.__pthread_mutex_s }
%struct.__pthread_mutex_s = type { i32, i32, i32, i32, i32, i16, i16, %struct.__pthread_internal_list }
%struct.__pthread_internal_list = type { ptr, ptr }
%struct.atomic_zd_t = type { i64 }
%struct.nstime_t = type { i64 }

@duckdb_je_nstime_monotonic = external constant ptr, align 8

; Function Attrs: nounwind uwtable
define internal i64 @decay_backlog_npages_limit(ptr noundef %0) #0 {
  %2 = alloca ptr, align 8
  %3 = alloca i64, align 8
  %4 = alloca i32, align 4
  %5 = alloca i64, align 8
  store ptr %0, ptr %2, align 8, !tbaa !3
  call void @llvm.lifetime.start.p0(i64 8, ptr %3) #10
  store i64 0, ptr %3, align 8, !tbaa !9
  call void @llvm.lifetime.start.p0(i64 4, ptr %4) #10
  store i32 0, ptr %4, align 4, !tbaa !17
  br label %6

6:                                                ; preds = %24, %1
  %7 = load i32, ptr %4, align 4, !tbaa !17
  %8 = icmp ult i32 %7, 200
  br i1 %8, label %10, label %9

9:                                                ; preds = %6
  call void @llvm.lifetime.end.p0(i64 4, ptr %4) #10
  br label %27

10:                                               ; preds = %6
  %11 = load ptr, ptr %2, align 8, !tbaa !3
  %12 = getelementptr inbounds nuw %struct.decay_s, ptr %11, i32 0, i32 9
  %13 = load i32, ptr %4, align 4, !tbaa !17
  %14 = zext i32 %13 to i64
  %15 = getelementptr inbounds nuw [200 x i64], ptr %12, i64 0, i64 %14
  %16 = load i64, ptr %15, align 8, !tbaa !9
  %17 = load i32, ptr %4, align 4, !tbaa !17
  %18 = zext i32 %17 to i64
  %19 = getelementptr inbounds nuw [200 x i64], ptr @h_steps, i64 0, i64 %18
  %20 = load i64, ptr %19, align 8, !tbaa !9
  %21 = mul i64 %16, %20
  %22 = load i64, ptr %3, align 8, !tbaa !9
  %23 = add i64 %22, %21
  store i64 %23, ptr %3, align 8, !tbaa !9
  br label %24

24:                                               ; preds = %10
  %25 = load i32, ptr %4, align 4, !tbaa !17
  %26 = add i32 %25, 1
  store i32 %26, ptr %4, align 4, !tbaa !17
  br label %6

27:                                               ; preds = %9
  call void @llvm.lifetime.start.p0(i64 8, ptr %5) #10
  %28 = load i64, ptr %3, align 8, !tbaa !9
  %29 = lshr i64 %28, 24
  store i64 %29, ptr %5, align 8, !tbaa !9
  %30 = load i64, ptr %5, align 8, !tbaa !9
  call void @llvm.lifetime.end.p0(i64 8, ptr %5) #10
  call void @llvm.lifetime.end.p0(i64 8, ptr %3) #10
  ret i64 %30
}

; Function Attrs: nounwind uwtable
define internal void @decay_backlog_update(ptr noundef %0, i64 noundef %1, i64 noundef %2) #0 {
  %4 = alloca ptr, align 8
  %5 = alloca i64, align 8
  %6 = alloca i64, align 8
  %7 = alloca i64, align 8
  %8 = alloca i64, align 8
  store ptr %0, ptr %4, align 8, !tbaa !3
  store i64 %1, ptr %5, align 8, !tbaa !9
  store i64 %2, ptr %6, align 8, !tbaa !9
  %9 = load i64, ptr %5, align 8, !tbaa !9
  %10 = icmp uge i64 %9, 200
  br i1 %10, label %11, label %15

11:                                               ; preds = %3
  %12 = load ptr, ptr %4, align 8, !tbaa !3
  %13 = getelementptr inbounds nuw %struct.decay_s, ptr %12, i32 0, i32 9
  %14 = getelementptr inbounds [200 x i64], ptr %13, i64 0, i64 0
  call void @llvm.memset.p0.i64(ptr align 8 %14, i8 0, i64 1592, i1 false)
  br label %42

15:                                               ; preds = %3
  call void @llvm.lifetime.start.p0(i64 8, ptr %7) #10
  %16 = load i64, ptr %5, align 8, !tbaa !9
  store i64 %16, ptr %7, align 8, !tbaa !9
  br label %17

17:                                               ; preds = %15
  br label %18

18:                                               ; preds = %17
  br label %19

19:                                               ; preds = %18
  %20 = load ptr, ptr %4, align 8, !tbaa !3
  %21 = getelementptr inbounds nuw %struct.decay_s, ptr %20, i32 0, i32 9
  %22 = getelementptr inbounds [200 x i64], ptr %21, i64 0, i64 0
  %23 = load ptr, ptr %4, align 8, !tbaa !3
  %24 = getelementptr inbounds nuw %struct.decay_s, ptr %23, i32 0, i32 9
  %25 = load i64, ptr %7, align 8, !tbaa !9
  %26 = getelementptr inbounds nuw [200 x i64], ptr %24, i64 0, i64 %25
  %27 = load i64, ptr %7, align 8, !tbaa !9
  %28 = sub i64 200, %27
  %29 = mul i64 %28, 8
  call void @llvm.memmove.p0.p0.i64(ptr align 8 %22, ptr align 8 %26, i64 %29, i1 false)
  %30 = load i64, ptr %7, align 8, !tbaa !9
  %31 = icmp ugt i64 %30, 1
  br i1 %31, label %32, label %41

32:                                               ; preds = %19
  %33 = load ptr, ptr %4, align 8, !tbaa !3
  %34 = getelementptr inbounds nuw %struct.decay_s, ptr %33, i32 0, i32 9
  %35 = load i64, ptr %7, align 8, !tbaa !9
  %36 = sub i64 200, %35
  %37 = getelementptr inbounds nuw [200 x i64], ptr %34, i64 0, i64 %36
  %38 = load i64, ptr %7, align 8, !tbaa !9
  %39 = sub i64 %38, 1
  %40 = mul i64 %39, 8
  call void @llvm.memset.p0.i64(ptr align 8 %37, i8 0, i64 %40, i1 false)
  br label %41

41:                                               ; preds = %32, %19
  call void @llvm.lifetime.end.p0(i64 8, ptr %7) #10
  br label %42

42:                                               ; preds = %41, %11
  call void @llvm.lifetime.start.p0(i64 8, ptr %8) #10
  %43 = load i64, ptr %6, align 8, !tbaa !9
  %44 = load ptr, ptr %4, align 8, !tbaa !3
  %45 = getelementptr inbounds nuw %struct.decay_s, ptr %44, i32 0, i32 8
  %46 = load i64, ptr %45, align 8, !tbaa !16
  %47 = icmp ugt i64 %43, %46
  br i1 %47, label %48, label %54

48:                                               ; preds = %42
  %49 = load i64, ptr %6, align 8, !tbaa !9
  %50 = load ptr, ptr %4, align 8, !tbaa !3
  %51 = getelementptr inbounds nuw %struct.decay_s, ptr %50, i32 0, i32 8
  %52 = load i64, ptr %51, align 8, !tbaa !16
  %53 = sub i64 %49, %52
  br label %55

54:                                               ; preds = %42
  br label %55

55:                                               ; preds = %54, %48
  %56 = phi i64 [ %53, %48 ], [ 0, %54 ]
  store i64 %56, ptr %8, align 8, !tbaa !9
  %57 = load i64, ptr %8, align 8, !tbaa !9
  %58 = load ptr, ptr %4, align 8, !tbaa !3
  %59 = getelementptr inbounds nuw %struct.decay_s, ptr %58, i32 0, i32 9
  %60 = getelementptr inbounds [200 x i64], ptr %59, i64 0, i64 199
  store i64 %57, ptr %60, align 8, !tbaa !9
  call void @llvm.lifetime.end.p0(i64 8, ptr %8) #10
  ret void
}

; Function Attrs: inlinehint nounwind uwtable
define internal zeroext i1 @decay_deadline_reached(ptr noundef %0, ptr noundef %1) #5 {
  %3 = alloca ptr, align 8
  %4 = alloca ptr, align 8
  store ptr %0, ptr %3, align 8, !tbaa !3
  store ptr %1, ptr %4, align 8, !tbaa !8
  %5 = load ptr, ptr %3, align 8, !tbaa !3
  %6 = getelementptr inbounds nuw %struct.decay_s, ptr %5, i32 0, i32 6
  %7 = load ptr, ptr %4, align 8, !tbaa !8
  %8 = call i32 @duckdb_je_nstime_compare(ptr noundef %6, ptr noundef %7)
  %9 = icmp sle i32 %8, 0
  ret i1 %9
}

; Function Attrs: nounwind uwtable
define internal void @decay_maybe_update_time(ptr noundef %0, ptr noundef %1) #0 {
  %3 = alloca ptr, align 8
  %4 = alloca ptr, align 8
  store ptr %0, ptr %3, align 8, !tbaa !3
  store ptr %1, ptr %4, align 8, !tbaa !8
  %5 = load ptr, ptr @duckdb_je_nstime_monotonic, align 8, !tbaa !8
  %6 = call zeroext i1 %5()
  br i1 %6, label %13, label %7

7:                                                ; preds = %2
  %8 = load ptr, ptr %3, align 8, !tbaa !3
  %9 = getelementptr inbounds nuw %struct.decay_s, ptr %8, i32 0, i32 4
  %10 = load ptr, ptr %4, align 8, !tbaa !8
  %11 = call i32 @duckdb_je_nstime_compare(ptr noundef %9, ptr noundef %10)
  %12 = icmp sgt i32 %11, 0
  br label %13

13:                                               ; preds = %7, %2
  %14 = phi i1 [ false, %2 ], [ %12, %7 ]
  %15 = xor i1 %14, true
  %16 = xor i1 %15, true
  %17 = zext i1 %16 to i32
  %18 = sext i32 %17 to i64
  %19 = call i64 @llvm.expect.i64(i64 %18, i64 0)
  %20 = icmp ne i64 %19, 0
  br i1 %20, label %21, label %26

21:                                               ; preds = %13
  %22 = load ptr, ptr %3, align 8, !tbaa !3
  %23 = getelementptr inbounds nuw %struct.decay_s, ptr %22, i32 0, i32 4
  %24 = load ptr, ptr %4, align 8, !tbaa !8
  call void @duckdb_je_nstime_copy(ptr noundef %23, ptr noundef %24)
  %25 = load ptr, ptr %3, align 8, !tbaa !3
  call void @duckdb_je_decay_deadline_init(ptr noundef %25)
  br label %29

26:                                               ; preds = %13
  br label %27

27:                                               ; preds = %26
  br label %28

28:                                               ; preds = %27
  br label %29

29:                                               ; preds = %28, %21
  ret void
}

; Function Attrs: nounwind uwtable
define zeroext i1 @duckdb_je_decay_maybe_advance_epoch(ptr noundef %0, ptr noundef %1, i64 noundef %2) #0 {
  %4 = alloca i1, align 1
  %5 = alloca ptr, align 8
  %6 = alloca ptr, align 8
  %7 = alloca i64, align 8
  %8 = alloca %struct.nstime_t, align 8
  %9 = alloca i64, align 8
  store ptr %0, ptr %5, align 8, !tbaa !3
  store ptr %1, ptr %6, align 8, !tbaa !8
  store i64 %2, ptr %7, align 8, !tbaa !9
  %10 = load ptr, ptr %5, align 8, !tbaa !3
  %11 = load ptr, ptr %6, align 8, !tbaa !8
  call void @decay_maybe_update_time(ptr noundef %10, ptr noundef %11)
  %12 = load ptr, ptr %5, align 8, !tbaa !3
  %13 = load ptr, ptr %6, align 8, !tbaa !8
  %14 = call zeroext i1 @decay_deadline_reached(ptr noundef %12, ptr noundef %13)
  br i1 %14, label %16, label %15

15:                                               ; preds = %3
  store i1 false, ptr %4, align 1
  br label %54

16:                                               ; preds = %3
  call void @llvm.lifetime.start.p0(i64 8, ptr %8) #10
  %17 = load ptr, ptr %6, align 8, !tbaa !8
  call void @duckdb_je_nstime_copy(ptr noundef %8, ptr noundef %17)
  %18 = load ptr, ptr %5, align 8, !tbaa !3
  %19 = getelementptr inbounds nuw %struct.decay_s, ptr %18, i32 0, i32 4
  call void @duckdb_je_nstime_subtract(ptr noundef %8, ptr noundef %19)
  call void @llvm.lifetime.start.p0(i64 8, ptr %9) #10
  %20 = load ptr, ptr %5, align 8, !tbaa !3
  %21 = getelementptr inbounds nuw %struct.decay_s, ptr %20, i32 0, i32 3
  %22 = call i64 @duckdb_je_nstime_divide(ptr noundef %8, ptr noundef %21)
  store i64 %22, ptr %9, align 8, !tbaa !9
  br label %23

23:                                               ; preds = %16
  br label %24

24:                                               ; preds = %23
  br label %25

25:                                               ; preds = %24
  %26 = load ptr, ptr %5, align 8, !tbaa !3
  %27 = getelementptr inbounds nuw %struct.decay_s, ptr %26, i32 0, i32 3
  call void @duckdb_je_nstime_copy(ptr noundef %8, ptr noundef %27)
  %28 = load i64, ptr %9, align 8, !tbaa !9
  call void @duckdb_je_nstime_imultiply(ptr noundef %8, i64 noundef %28)
  %29 = load ptr, ptr %5, align 8, !tbaa !3
  %30 = getelementptr inbounds nuw %struct.decay_s, ptr %29, i32 0, i32 4
  call void @duckdb_je_nstime_add(ptr noundef %30, ptr noundef %8)
  %31 = load ptr, ptr %5, align 8, !tbaa !3
  call void @duckdb_je_decay_deadline_init(ptr noundef %31)
  %32 = load ptr, ptr %5, align 8, !tbaa !3
  %33 = load i64, ptr %9, align 8, !tbaa !9
  %34 = load i64, ptr %7, align 8, !tbaa !9
  call void @decay_backlog_update(ptr noundef %32, i64 noundef %33, i64 noundef %34)
  %35 = load ptr, ptr %5, align 8, !tbaa !3
  %36 = call i64 @decay_backlog_npages_limit(ptr noundef %35)
  %37 = load ptr, ptr %5, align 8, !tbaa !3
  %38 = getelementptr inbounds nuw %struct.decay_s, ptr %37, i32 0, i32 7
  store i64 %36, ptr %38, align 8, !tbaa !20
  %39 = load ptr, ptr %5, align 8, !tbaa !3
  %40 = getelementptr inbounds nuw %struct.decay_s, ptr %39, i32 0, i32 7
  %41 = load i64, ptr %40, align 8, !tbaa !20
  %42 = load i64, ptr %7, align 8, !tbaa !9
  %43 = icmp ugt i64 %41, %42
  br i1 %43, label %44, label %48

44:                                               ; preds = %25
  %45 = load ptr, ptr %5, align 8, !tbaa !3
  %46 = getelementptr inbounds nuw %struct.decay_s, ptr %45, i32 0, i32 7
  %47 = load i64, ptr %46, align 8, !tbaa !20
  br label %50

48:                                               ; preds = %25
  %49 = load i64, ptr %7, align 8, !tbaa !9
  br label %50

50:                                               ; preds = %48, %44
  %51 = phi i64 [ %47, %44 ], [ %49, %48 ]
  %52 = load ptr, ptr %5, align 8, !tbaa !3
  %53 = getelementptr inbounds nuw %struct.decay_s, ptr %52, i32 0, i32 8
  store i64 %51, ptr %53, align 8, !tbaa !16
  store i1 true, ptr %4, align 1
  call void @llvm.lifetime.end.p0(i64 8, ptr %9) #10
  call void @llvm.lifetime.end.p0(i64 8, ptr %8) #10
  br label %54

54:                                               ; preds = %50, %15
  %55 = load i1, ptr %4, align 1
  ret i1 %55
}